; Function Attrs: mustprogress nounwind uwtable
define hidden noundef ptr @_ZN8ciMethod17get_flow_analysisEv(ptr noundef nonnull align 8 dereferenceable(160) %0) local_unnamed_addr #0 align 2 {
  %2 = getelementptr inbounds i8, ptr %0, i64 144
  %3 = load ptr, ptr %2, align 8
  %4 = icmp eq ptr %3, null
  br i1 %4, label %5, label %13

5:                                                ; preds = %1
  %6 = tail call align 8 ptr @llvm.threadlocal.address.p0(ptr align 8 @_ZN6Thread12_thr_currentE)
  %7 = load ptr, ptr %6, align 8
  %8 = getelementptr inbounds i8, ptr %7, i64 1808
  %9 = load ptr, ptr %8, align 8
  %10 = load ptr, ptr %9, align 8
  %11 = tail call noundef ptr @_ZN8ArenaObjnwEmP5Arena(i64 noundef 88, ptr noundef %10) #14
  %12 = icmp ne ptr %11, null
  tail call void @llvm.assume(i1 %12)
  tail call void @_ZN10ciTypeFlowC1EP5ciEnvP8ciMethodi(ptr noundef nonnull align 8 dereferenceable(88) %11, ptr noundef nonnull %9, ptr noundef nonnull %0, i32 noundef -1) #14
  store ptr %11, ptr %2, align 8
  tail call void @_ZN10ciTypeFlow7do_flowEv(ptr noundef nonnull align 8 dereferenceable(88) %11) #14
  %.pre = load ptr, ptr %2, align 8
  br label %13

13:                                               ; preds = %5, %1
  %14 = phi ptr [ %.pre, %5 ], [ %3, %1 ]
  ret ptr %14
}